; ModuleID = '7/569.c'
source_filename = "7/569.c"
target datalayout = "e-m:e-p270:32:32-p271:32:32-p272:64:64-i64:64-f80:128-n8:16:32:64-S128"
target triple = "x86_64-pc-linux-gnu"

; Function Attrs: noinline nounwind uwtable
define dso_local i32 @main() #0 {
  %1 = alloca i32, align 4
  %2 = alloca [256 x i8], align 16
  %3 = alloca [256 x i8], align 16
  %4 = alloca [256 x i8], align 16
  %5 = alloca [256 x i8], align 16
  %6 = alloca i32, align 4
  %7 = alloca i32, align 4
  %8 = alloca i32, align 4
  %9 = alloca i32, align 4
  %10 = alloca i32, align 4
  %11 = alloca i32, align 4
  %12 = alloca i32, align 4
  %13 = alloca i32, align 4
  store i32 0, i32* %1, align 4
  store i32 0, i32* %12, align 4
  store i32 0, i32* %13, align 4
  %14 = getelementptr inbounds [256 x i8], [256 x i8]* %2, i64 0, i64 0
  %15 = call i32 (i8*, ...) bitcast (i32 (...)* @gets to i32 (i8*, ...)*)(i8* %14)
  %16 = getelementptr inbounds [256 x i8], [256 x i8]* %3, i64 0, i64 0
  %17 = call i32 (i8*, ...) bitcast (i32 (...)* @gets to i32 (i8*, ...)*)(i8* %16)
  %18 = getelementptr inbounds [256 x i8], [256 x i8]* %4, i64 0, i64 0
  %19 = call i32 (i8*, ...) bitcast (i32 (...)* @gets to i32 (i8*, ...)*)(i8* %18)
  %20 = getelementptr inbounds [256 x i8], [256 x i8]* %2, i64 0, i64 0
  %21 = call i64 @strlen(i8* %20) #3
  %22 = trunc i64 %21 to i32
  store i32 %22, i32* %8, align 4
  %23 = getelementptr inbounds [256 x i8], [256 x i8]* %3, i64 0, i64 0
  %24 = call i64 @strlen(i8* %23) #3
  %25 = trunc i64 %24 to i32
  store i32 %25, i32* %9, align 4
  %26 = getelementptr inbounds [256 x i8], [256 x i8]* %4, i64 0, i64 0
  %27 = call i64 @strlen(i8* %26) #3
  %28 = trunc i64 %27 to i32
  store i32 %28, i32* %10, align 4
  store i32 0, i32* %6, align 4
  br label %29

29:                                               ; preds = %148, %0
  %30 = load i32, i32* %6, align 4
  %31 = load i32, i32* %8, align 4
  %32 = load i32, i32* %9, align 4
  %33 = sub nsw i32 %31, %32
  %34 = icmp sle i32 %30, %33
  br i1 %34, label %35, label %151

35:                                               ; preds = %29
  %36 = load i32, i32* %6, align 4
  store i32 %36, i32* %7, align 4
  br label %37

37:                                               ; preds = %62, %35
  %38 = load i32, i32* %7, align 4
  %39 = load i32, i32* %6, align 4
  %40 = load i32, i32* %9, align 4
  %41 = add nsw i32 %39, %40
  %42 = icmp slt i32 %38, %41
  br i1 %42, label %43, label %65

43:                                               ; preds = %37
  %44 = load i32, i32* %7, align 4
  %45 = sext i32 %44 to i64
  %46 = getelementptr inbounds [256 x i8], [256 x i8]* %2, i64 0, i64 %45
  %47 = load i8, i8* %46, align 1
  %48 = sext i8 %47 to i32
  %49 = load i32, i32* %7, align 4
  %50 = load i32, i32* %6, align 4
  %51 = sub nsw i32 %49, %50
  %52 = sext i32 %51 to i64
  %53 = getelementptr inbounds [256 x i8], [256 x i8]* %3, i64 0, i64 %52
  %54 = load i8, i8* %53, align 1
  %55 = sext i8 %54 to i32
  %56 = icmp eq i32 %48, %55
  br i1 %56, label %57, label %60

57:                                               ; preds = %43
  %58 = load i32, i32* %13, align 4
  %59 = add nsw i32 %58, 1
  store i32 %59, i32* %13, align 4
  br label %61

60:                                               ; preds = %43
  br label %65

61:                                               ; preds = %57
  br label %62

62:                                               ; preds = %61
  %63 = load i32, i32* %7, align 4
  %64 = add nsw i32 %63, 1
  store i32 %64, i32* %7, align 4
  br label %37

65:                                               ; preds = %60, %37
  %66 = load i32, i32* %13, align 4
  %67 = load i32, i32* %9, align 4
  %68 = icmp eq i32 %66, %67
  br i1 %68, label %69, label %147

69:                                               ; preds = %65
  %70 = load i32, i32* %12, align 4
  %71 = add nsw i32 %70, 1
  store i32 %71, i32* %12, align 4
  %72 = load i32, i32* %6, align 4
  store i32 %72, i32* %11, align 4
  store i32 0, i32* %7, align 4
  br label %73

73:                                               ; preds = %86, %69
  %74 = load i32, i32* %7, align 4
  %75 = load i32, i32* %11, align 4
  %76 = sub nsw i32 %75, 1
  %77 = icmp sle i32 %74, %76
  br i1 %77, label %78, label %89

78:                                               ; preds = %73
  %79 = load i32, i32* %7, align 4
  %80 = sext i32 %79 to i64
  %81 = getelementptr inbounds [256 x i8], [256 x i8]* %2, i64 0, i64 %80
  %82 = load i8, i8* %81, align 1
  %83 = load i32, i32* %7, align 4
  %84 = sext i32 %83 to i64
  %85 = getelementptr inbounds [256 x i8], [256 x i8]* %5, i64 0, i64 %84
  store i8 %82, i8* %85, align 1
  br label %86

86:                                               ; preds = %78
  %87 = load i32, i32* %7, align 4
  %88 = add nsw i32 %87, 1
  store i32 %88, i32* %7, align 4
  br label %73

89:                                               ; preds = %73
  %90 = load i32, i32* %11, align 4
  store i32 %90, i32* %7, align 4
  br label %91

91:                                               ; preds = %107, %89
  %92 = load i32, i32* %7, align 4
  %93 = load i32, i32* %11, align 4
  %94 = load i32, i32* %10, align 4
  %95 = add nsw i32 %93, %94
  %96 = icmp slt i32 %92, %95
  br i1 %96, label %97, label %110

97:                                               ; preds = %91
  %98 = load i32, i32* %7, align 4
  %99 = load i32, i32* %6, align 4
  %100 = sub nsw i32 %98, %99
  %101 = sext i32 %100 to i64
  %102 = getelementptr inbounds [256 x i8], [256 x i8]* %4, i64 0, i64 %101
  %103 = load i8, i8* %102, align 1
  %104 = load i32, i32* %7, align 4
  %105 = sext i32 %104 to i64
  %106 = getelementptr inbounds [256 x i8], [256 x i8]* %5, i64 0, i64 %105
  store i8 %103, i8* %106, align 1
  br label %107

107:                                              ; preds = %97
  %108 = load i32, i32* %7, align 4
  %109 = add nsw i32 %108, 1
  store i32 %109, i32* %7, align 4
  br label %91

110:                                              ; preds = %91
  %111 = load i32, i32* %11, align 4
  %112 = load i32, i32* %10, align 4
  %113 = add nsw i32 %111, %112
  store i32 %113, i32* %7, align 4
  br label %114

114:                                              ; preds = %134, %110
  %115 = load i32, i32* %7, align 4
  %116 = load i32, i32* %8, align 4
  %117 = load i32, i32* %9, align 4
  %118 = sub nsw i32 %116, %117
  %119 = load i32, i32* %10, align 4
  %120 = add nsw i32 %118, %119
  %121 = icmp slt i32 %115, %120
  br i1 %121, label %122, label %137

122:                                              ; preds = %114
  %123 = load i32, i32* %9, align 4
  %124 = load i32, i32* %7, align 4
  %125 = add nsw i32 %123, %124
  %126 = load i32, i32* %10, align 4
  %127 = sub nsw i32 %125, %126
  %128 = sext i32 %127 to i64
  %129 = getelementptr inbounds [256 x i8], [256 x i8]* %2, i64 0, i64 %128
  %130 = load i8, i8* %129, align 1
  %131 = load i32, i32* %7, align 4
  %132 = sext i32 %131 to i64
  %133 = getelementptr inbounds [256 x i8], [256 x i8]* %5, i64 0, i64 %132
  store i8 %130, i8* %133, align 1
  br label %134

134:                                              ; preds = %122
  %135 = load i32, i32* %7, align 4
  %136 = add nsw i32 %135, 1
  store i32 %136, i32* %7, align 4
  br label %114

137:                                              ; preds = %114
  %138 = load i32, i32* %8, align 4
  %139 = load i32, i32* %9, align 4
  %140 = sub nsw i32 %138, %139
  %141 = load i32, i32* %10, align 4
  %142 = add nsw i32 %140, %141
  %143 = sext i32 %142 to i64
  %144 = getelementptr inbounds [256 x i8], [256 x i8]* %5, i64 0, i64 %143
  store i8 0, i8* %144, align 1
  %145 = getelementptr inbounds [256 x i8], [256 x i8]* %5, i64 0, i64 0
  %146 = call i32 @puts(i8* %145)
  br label %151

147:                                              ; preds = %65
  store i32 0, i32* %13, align 4
  br label %148

148:                                              ; preds = %147
  %149 = load i32, i32* %6, align 4
  %150 = add nsw i32 %149, 1
  store i32 %150, i32* %6, align 4
  br label %29

151:                                              ; preds = %137, %29
  %152 = load i32, i32* %12, align 4
  %153 = icmp eq i32 %152, 0
  br i1 %153, label %154, label %157

154:                                              ; preds = %151
  %155 = getelementptr inbounds [256 x i8], [256 x i8]* %2, i64 0, i64 0
  %156 = call i32 @puts(i8* %155)
  br label %157

157:                                              ; preds = %154, %151
  ret i32 0
}

declare dso_local i32 @gets(...) #1

; Function Attrs: nounwind readonly
declare dso_local i64 @strlen(i8*) #2

declare dso_local i32 @puts(i8*) #1


!llvm.module.flags = !{!0}
!llvm.ident = !{!1}

!0 = !{i32 1, !"wchar_size", i32 4}
!1 = !{!"clang version 10.0.0-4ubuntu1 "}
